target datalayout = "e-m:e-p270:32:32-p271:32:32-p272:64:64-i64:64-i128:128-f80:128-n8:16:32:64-S128"
target triple = "x86_64-pc-linux-gnu"

%struct.itimerval = type { %struct.timeval, %struct.timeval }
%struct.timeval = type { i64, i64 }

; Function Attrs: nounwind uwtable
define internal void @zend_set_timeout_ex(i64 noundef %0, i1 noundef zeroext %1) #0 {
  %3 = alloca i64, align 8
  %4 = alloca i8, align 1
  %5 = alloca %struct.itimerval, align 8
  %6 = alloca i32, align 4
  store i64 %0, ptr %3, align 8
  %7 = zext i1 %1 to i8
  store i8 %7, ptr %4, align 1
  %8 = load i64, ptr %3, align 8
  %9 = icmp ne i64 %8, 0
  br i1 %9, label %10, label %21

10:                                               ; preds = %2
  %11 = load i64, ptr %3, align 8
  %12 = getelementptr inbounds %struct.itimerval, ptr %5, i32 0, i32 1
  %13 = getelementptr inbounds %struct.timeval, ptr %12, i32 0, i32 0
  store i64 %11, ptr %13, align 8
  %14 = getelementptr inbounds %struct.itimerval, ptr %5, i32 0, i32 0
  %15 = getelementptr inbounds %struct.timeval, ptr %14, i32 0, i32 1
  store i64 0, ptr %15, align 8
  %16 = getelementptr inbounds %struct.itimerval, ptr %5, i32 0, i32 0
  %17 = getelementptr inbounds %struct.timeval, ptr %16, i32 0, i32 0
  store i64 0, ptr %17, align 8
  %18 = getelementptr inbounds %struct.itimerval, ptr %5, i32 0, i32 1
  %19 = getelementptr inbounds %struct.timeval, ptr %18, i32 0, i32 1
  store i64 0, ptr %19, align 8
  %20 = call i32 @setitimer(i32 noundef 2, ptr noundef %5, ptr noundef null) #14
  br label %21

21:                                               ; preds = %10, %2
  store i32 27, ptr %6, align 4
  %22 = load i8, ptr %4, align 1
  %23 = trunc i8 %22 to i1
  br i1 %23, label %24, label %26

24:                                               ; preds = %21
  %25 = load i32, ptr %6, align 4
  call void @zend_signal(i32 noundef %25, ptr noundef @zend_timeout_handler)
  br label %26

26:                                               ; preds = %24, %21
  ret void
}